; Function Attrs: nounwind sspstrong uwtable
define internal noundef i64 @drop_while_i(i64 %0, i64 noundef %1, i32 noundef %2, ptr noundef %3, i64 %4) #0 {
  %6 = inttoptr i64 %1 to ptr
  switch i32 %2, label %9 [
    i32 0, label %rb_enum_values_pack.exit
    i32 1, label %7
  ]

7:                                                ; preds = %5
  %8 = load i64, ptr %3, align 8, !tbaa !7
  br label %rb_enum_values_pack.exit

9:                                                ; preds = %5
  %10 = sext i32 %2 to i64
  %11 = tail call i64 @rb_ary_new_from_values(i64 noundef %10, ptr noundef %3) #14
  br label %rb_enum_values_pack.exit

rb_enum_values_pack.exit:                         ; preds = %5, %7, %9
  %.0.i = phi i64 [ %8, %7 ], [ %11, %9 ], [ 4, %5 ]
  %12 = getelementptr inbounds nuw i8, ptr %6, i64 32
  %13 = load i64, ptr %12, align 8, !tbaa !22
  %.not = icmp eq i64 %13, 0
  br i1 %.not, label %14, label %.thread

14:                                               ; preds = %rb_enum_values_pack.exit
  %15 = icmp sgt i32 %2, 1
  br i1 %15, label %16, label %18

16:                                               ; preds = %14
  %17 = tail call i64 @rb_yield_force_blockarg(i64 noundef %.0.i) #14
  br label %enum_yield.exit

18:                                               ; preds = %14
  %19 = icmp eq i32 %2, 1
  br i1 %19, label %20, label %22

20:                                               ; preds = %18
  %21 = tail call i64 @rb_yield(i64 noundef %.0.i) #14
  br label %enum_yield.exit

22:                                               ; preds = %18
  %23 = tail call i64 @rb_yield_values2(i32 noundef 0, ptr noundef null) #14
  br label %enum_yield.exit

enum_yield.exit:                                  ; preds = %16, %20, %22
  %.0.i10 = phi i64 [ %17, %16 ], [ %21, %20 ], [ %23, %22 ]
  %24 = and i64 %.0.i10, -5
  %.not12 = icmp eq i64 %24, 0
  br i1 %.not12, label %25, label %26

25:                                               ; preds = %enum_yield.exit
  store i64 1, ptr %12, align 8, !tbaa !22
  br label %.thread

26:                                               ; preds = %enum_yield.exit
  %.pr = load i64, ptr %12, align 8, !tbaa !22
  %.not9 = icmp eq i64 %.pr, 0
  br i1 %.not9, label %30, label %.thread

.thread:                                          ; preds = %rb_enum_values_pack.exit, %25, %26
  %27 = getelementptr inbounds nuw i8, ptr %6, i64 16
  %28 = load i64, ptr %27, align 8, !tbaa !60
  %29 = tail call i64 @rb_ary_push(i64 noundef %28, i64 noundef %.0.i) #14
  br label %30

30:                                               ; preds = %.thread, %26
  ret i64 4
}